target datalayout = "e-m:e-p270:32:32-p271:32:32-p272:64:64-i64:64-i128:128-f80:128-n8:16:32:64-S128"
target triple = "x86_64-pc-linux-gnu"

%"class.libunwind::LocalAddressSpace" = type { i8 }
%"struct.libunwind::CFI_Parser<libunwind::LocalAddressSpace>::FDE_Info" = type { i64, i64, i64, i64, i64, i64 }
%"struct.libunwind::CFI_Parser<libunwind::LocalAddressSpace>::CIE_Info" = type { i64, i64, i64, i8, i8, i8, i8, i64, i32, i32, i8, i8, i8 }

@_ZN9libunwind17LocalAddressSpace17sThisAddressSpaceE = hidden global %"class.libunwind::LocalAddressSpace" zeroinitializer, align 1

; Function Attrs: mustprogress nounwind uwtable
define linkonce_odr hidden noundef i32 @_ZN9libunwind17LocalAddressSpace5get32Em(ptr noundef nonnull align 1 dereferenceable(1) %0, i64 noundef %1) #0 comdat align 2 {
  %3 = alloca ptr, align 8
  %4 = alloca i64, align 8
  %5 = alloca i32, align 4
  store ptr %0, ptr %3, align 8, !tbaa !27
  store i64 %1, ptr %4, align 8, !tbaa !23
  call void @llvm.lifetime.start.p0(i64 4, ptr %5) #9
  %6 = load i64, ptr %4, align 8, !tbaa !23
  %7 = inttoptr i64 %6 to ptr
  call void @llvm.memcpy.p0.p0.i64(ptr align 4 %5, ptr align 1 %7, i64 4, i1 false)
  %8 = load i32, ptr %5, align 4, !tbaa !37
  call void @llvm.lifetime.end.p0(i64 4, ptr %5) #9
  ret i32 %8
}

; Function Attrs: mustprogress nounwind uwtable
define dso_local void @__unw_add_dynamic_eh_frame_section(i64 noundef %0) #0 {
  %2 = alloca i64, align 8
  %3 = alloca i64, align 8
  %4 = alloca %"struct.libunwind::CFI_Parser<libunwind::LocalAddressSpace>::CIE_Info", align 8
  %5 = alloca %"struct.libunwind::CFI_Parser<libunwind::LocalAddressSpace>::FDE_Info", align 8
  %6 = alloca i64, align 8
  %7 = alloca i32, align 4
  store i64 %0, ptr %2, align 8, !tbaa !23
  call void @llvm.lifetime.start.p0(i64 8, ptr %3) #9
  %8 = load i64, ptr %2, align 8, !tbaa !23
  store i64 %8, ptr %3, align 8, !tbaa !23
  call void @llvm.lifetime.start.p0(i64 56, ptr %4) #9
  call void @llvm.lifetime.start.p0(i64 48, ptr %5) #9
  call void @llvm.lifetime.start.p0(i64 8, ptr %6) #9
  %9 = load i64, ptr %2, align 8, !tbaa !23
  store i64 %9, ptr %6, align 8, !tbaa !23
  br label %10

10:                                               ; preds = %41, %1
  %11 = load i64, ptr %6, align 8, !tbaa !23
  %12 = call noundef i32 @_ZN9libunwind17LocalAddressSpace5get32Em(ptr noundef nonnull align 1 dereferenceable(1) @_ZN9libunwind17LocalAddressSpace17sThisAddressSpaceE, i64 noundef %11)
  %13 = icmp ne i32 %12, 0
  br i1 %13, label %14, label %42

14:                                               ; preds = %10
  %15 = load i64, ptr %6, align 8, !tbaa !23
  %16 = call noundef ptr @_ZN9libunwind10CFI_ParserINS_17LocalAddressSpaceEE9decodeFDEERS1_mPNS2_8FDE_InfoEPNS2_8CIE_InfoEb(ptr noundef nonnull align 1 dereferenceable(1) @_ZN9libunwind17LocalAddressSpace17sThisAddressSpaceE, i64 noundef %15, ptr noundef %5, ptr noundef %4, i1 noundef zeroext true)
  %17 = icmp eq ptr %16, null
  br i1 %17, label %18, label %30

18:                                               ; preds = %14
  %19 = load i64, ptr %3, align 8, !tbaa !23
  %20 = getelementptr inbounds nuw %"struct.libunwind::CFI_Parser<libunwind::LocalAddressSpace>::FDE_Info", ptr %5, i32 0, i32 3
  %21 = load i64, ptr %20, align 8, !tbaa !62
  %22 = getelementptr inbounds nuw %"struct.libunwind::CFI_Parser<libunwind::LocalAddressSpace>::FDE_Info", ptr %5, i32 0, i32 4
  %23 = load i64, ptr %22, align 8, !tbaa !63
  %24 = getelementptr inbounds nuw %"struct.libunwind::CFI_Parser<libunwind::LocalAddressSpace>::FDE_Info", ptr %5, i32 0, i32 0
  %25 = load i64, ptr %24, align 8, !tbaa !60
  call void @_ZN9libunwind13DwarfFDECacheINS_17LocalAddressSpaceEE3addEmmmm(i64 noundef %19, i64 noundef %21, i64 noundef %23, i64 noundef %25)
  %26 = getelementptr inbounds nuw %"struct.libunwind::CFI_Parser<libunwind::LocalAddressSpace>::FDE_Info", ptr %5, i32 0, i32 1
  %27 = load i64, ptr %26, align 8, !tbaa !74
  %28 = load i64, ptr %6, align 8, !tbaa !23
  %29 = add i64 %28, %27
  store i64 %29, ptr %6, align 8, !tbaa !23
  br label %41

30:                                               ; preds = %14
  %31 = load i64, ptr %6, align 8, !tbaa !23
  %32 = call noundef ptr @_ZN9libunwind10CFI_ParserINS_17LocalAddressSpaceEE8parseCIEERS1_mPNS2_8CIE_InfoE(ptr noundef nonnull align 1 dereferenceable(1) @_ZN9libunwind17LocalAddressSpace17sThisAddressSpaceE, i64 noundef %31, ptr noundef %4)
  %33 = icmp eq ptr %32, null
  br i1 %33, label %34, label %39

34:                                               ; preds = %30
  %35 = getelementptr inbounds nuw %"struct.libunwind::CFI_Parser<libunwind::LocalAddressSpace>::CIE_Info", ptr %4, i32 0, i32 1
  %36 = load i64, ptr %35, align 8, !tbaa !78
  %37 = load i64, ptr %6, align 8, !tbaa !23
  %38 = add i64 %37, %36
  store i64 %38, ptr %6, align 8, !tbaa !23
  br label %40

39:                                               ; preds = %30
  store i32 1, ptr %7, align 4
  br label %43

40:                                               ; preds = %34
  br label %41

41:                                               ; preds = %40, %18
  br label %10, !llvm.loop !79

42:                                               ; preds = %10
  store i32 0, ptr %7, align 4
  br label %43

43:                                               ; preds = %42, %39
  call void @llvm.lifetime.end.p0(i64 8, ptr %6) #9
  call void @llvm.lifetime.end.p0(i64 48, ptr %5) #9
  call void @llvm.lifetime.end.p0(i64 56, ptr %4) #9
  call void @llvm.lifetime.end.p0(i64 8, ptr %3) #9
  %44 = load i32, ptr %7, align 4
  switch i32 %44, label %46 [
    i32 0, label %45
    i32 1, label %45
  ]

45:                                               ; preds = %43, %43
  ret void

46:                                               ; preds = %43
  unreachable
}