; Function Attrs: mustprogress nounwind uwtable
define dso_local void @__unw_add_dynamic_eh_frame_section(i64 noundef %0) local_unnamed_addr #0 {
  %2 = alloca %"struct.libunwind::CFI_Parser<libunwind::LocalAddressSpace>::CIE_Info", align 8
  %3 = alloca %"struct.libunwind::CFI_Parser<libunwind::LocalAddressSpace>::FDE_Info", align 8
  call void @llvm.lifetime.start.p0(i64 56, ptr nonnull %2) #15
  call void @llvm.lifetime.start.p0(i64 48, ptr nonnull %3) #15
  %4 = inttoptr i64 %0 to ptr
  %.0.copyload.i8 = load i32, ptr %4, align 1
  %.not9 = icmp eq i32 %.0.copyload.i8, 0
  br i1 %.not9, label %._crit_edge, label %.lr.ph

.lr.ph:                                           ; preds = %1
  %5 = getelementptr inbounds nuw i8, ptr %2, i64 8
  %6 = getelementptr inbounds nuw i8, ptr %3, i64 24
  %7 = getelementptr inbounds nuw i8, ptr %3, i64 32
  %8 = getelementptr inbounds nuw i8, ptr %3, i64 8
  br label %9

9:                                                ; preds = %.lr.ph, %22
  %.010 = phi i64 [ %0, %.lr.ph ], [ %.1, %22 ]
  %10 = call noundef ptr @_ZN9libunwind10CFI_ParserINS_17LocalAddressSpaceEE9decodeFDEERS1_mPNS2_8FDE_InfoEPNS2_8CIE_InfoEb(ptr noundef nonnull align 1 dereferenceable(1) @_ZN9libunwind17LocalAddressSpace17sThisAddressSpaceE, i64 noundef %.010, ptr noundef nonnull %3, ptr noundef nonnull %2, i1 noundef zeroext true)
  %11 = icmp eq ptr %10, null
  br i1 %11, label %12, label %17

12:                                               ; preds = %9
  %13 = load i64, ptr %6, align 8, !tbaa !37
  %14 = load i64, ptr %7, align 8, !tbaa !38
  %15 = load i64, ptr %3, align 8, !tbaa !35
  call void @_ZN9libunwind13DwarfFDECacheINS_17LocalAddressSpaceEE3addEmmmm(i64 noundef %0, i64 noundef %13, i64 noundef %14, i64 noundef %15)
  %16 = load i64, ptr %8, align 8, !tbaa !48
  br label %22

17:                                               ; preds = %9
  %18 = call noundef ptr @_ZN9libunwind10CFI_ParserINS_17LocalAddressSpaceEE8parseCIEERS1_mPNS2_8CIE_InfoE(ptr noundef nonnull align 1 dereferenceable(1) @_ZN9libunwind17LocalAddressSpace17sThisAddressSpaceE, i64 noundef %.010, ptr noundef nonnull %2)
  %19 = icmp eq ptr %18, null
  br i1 %19, label %20, label %._crit_edge

20:                                               ; preds = %17
  %21 = load i64, ptr %5, align 8, !tbaa !52
  br label %22

22:                                               ; preds = %20, %12
  %.pn = phi i64 [ %16, %12 ], [ %21, %20 ]
  %.1 = add i64 %.pn, %.010
  %23 = inttoptr i64 %.1 to ptr
  %.0.copyload.i = load i32, ptr %23, align 1
  %.not = icmp eq i32 %.0.copyload.i, 0
  br i1 %.not, label %._crit_edge, label %9, !llvm.loop !53

._crit_edge:                                      ; preds = %17, %22, %1
  call void @llvm.lifetime.end.p0(i64 48, ptr nonnull %3) #15
  call void @llvm.lifetime.end.p0(i64 56, ptr nonnull %2) #15
  ret void
}